; Function Attrs: nounwind uwtable
define noalias ptr @l_Array_forIn_x27Unsafe_loop___at_Lean_Server_FileWorker_waitUnknownIdentifierRanges___spec__18___boxed(ptr noundef %0, ptr noundef %1, ptr noundef %2, ptr noundef %3, ptr noundef %4, ptr noundef %5, ptr noundef %6, ptr noundef %7, ptr noundef %8, ptr noundef %9) local_unnamed_addr #0 {
  %11 = getelementptr i8, ptr %6, i64 8
  %.val33 = load i64, ptr %11, align 8, !tbaa !12
  %12 = ptrtoint ptr %6 to i64
  %13 = and i64 %12, 1
  %.not = icmp eq i64 %13, 0
  br i1 %.not, label %14, label %lean_dec.exit22

14:                                               ; preds = %10
  %15 = load i32, ptr %6, align 4, !tbaa !8
  %16 = icmp sgt i32 %15, 1
  br i1 %16, label %17, label %19, !prof !11

17:                                               ; preds = %14
  %18 = add nsw i32 %15, -1
  store i32 %18, ptr %6, align 4, !tbaa !8
  br label %lean_dec.exit22

19:                                               ; preds = %14
  %.not.i = icmp eq i32 %15, 0
  br i1 %.not.i, label %lean_dec.exit22, label %20

20:                                               ; preds = %19
  tail call void @lean_dec_ref_cold(ptr noundef nonnull %6) #5
  br label %lean_dec.exit22

lean_dec.exit22:                                  ; preds = %20, %19, %17, %10
  %21 = getelementptr i8, ptr %7, i64 8
  %.val = load i64, ptr %21, align 8, !tbaa !12
  %22 = ptrtoint ptr %7 to i64
  %23 = and i64 %22, 1
  %.not34 = icmp eq i64 %23, 0
  br i1 %.not34, label %24, label %lean_dec.exit21

24:                                               ; preds = %lean_dec.exit22
  %25 = load i32, ptr %7, align 4, !tbaa !8
  %26 = icmp sgt i32 %25, 1
  br i1 %26, label %27, label %29, !prof !11

27:                                               ; preds = %24
  %28 = add nsw i32 %25, -1
  store i32 %28, ptr %7, align 4, !tbaa !8
  br label %lean_dec.exit21

29:                                               ; preds = %24
  %.not.i23 = icmp eq i32 %25, 0
  br i1 %.not.i23, label %lean_dec.exit21, label %30

30:                                               ; preds = %29
  tail call void @lean_dec_ref_cold(ptr noundef nonnull %7) #5
  br label %lean_dec.exit21

lean_dec.exit21:                                  ; preds = %30, %29, %27, %lean_dec.exit22
  %31 = tail call ptr @l_Array_forIn_x27Unsafe_loop___at_Lean_Server_FileWorker_waitUnknownIdentifierRanges___spec__18(ptr noundef %0, ptr noundef %1, ptr poison, ptr poison, ptr noundef %4, ptr noundef %5, i64 noundef %.val33, i64 noundef %.val, ptr noundef %8, ptr noundef %9)
  %32 = ptrtoint ptr %5 to i64
  %33 = and i64 %32, 1
  %.not35 = icmp eq i64 %33, 0
  br i1 %.not35, label %34, label %lean_dec.exit20

34:                                               ; preds = %lean_dec.exit21
  %35 = load i32, ptr %5, align 4, !tbaa !8
  %36 = icmp sgt i32 %35, 1
  br i1 %36, label %37, label %39, !prof !11

37:                                               ; preds = %34
  %38 = add nsw i32 %35, -1
  store i32 %38, ptr %5, align 4, !tbaa !8
  br label %lean_dec.exit20

39:                                               ; preds = %34
  %.not.i25 = icmp eq i32 %35, 0
  br i1 %.not.i25, label %lean_dec.exit20, label %40

40:                                               ; preds = %39
  tail call void @lean_dec_ref_cold(ptr noundef nonnull %5) #5
  br label %lean_dec.exit20

lean_dec.exit20:                                  ; preds = %40, %39, %37, %lean_dec.exit21
  %41 = ptrtoint ptr %3 to i64
  %42 = and i64 %41, 1
  %.not36 = icmp eq i64 %42, 0
  br i1 %.not36, label %43, label %lean_dec.exit19

43:                                               ; preds = %lean_dec.exit20
  %44 = load i32, ptr %3, align 4, !tbaa !8
  %45 = icmp sgt i32 %44, 1
  br i1 %45, label %46, label %48, !prof !11

46:                                               ; preds = %43
  %47 = add nsw i32 %44, -1
  store i32 %47, ptr %3, align 4, !tbaa !8
  br label %lean_dec.exit19

48:                                               ; preds = %43
  %.not.i27 = icmp eq i32 %44, 0
  br i1 %.not.i27, label %lean_dec.exit19, label %49

49:                                               ; preds = %48
  tail call void @lean_dec_ref_cold(ptr noundef nonnull %3) #5
  br label %lean_dec.exit19

lean_dec.exit19:                                  ; preds = %49, %48, %46, %lean_dec.exit20
  %50 = ptrtoint ptr %2 to i64
  %51 = and i64 %50, 1
  %.not37 = icmp eq i64 %51, 0
  br i1 %.not37, label %52, label %lean_dec.exit18

52:                                               ; preds = %lean_dec.exit19
  %53 = load i32, ptr %2, align 4, !tbaa !8
  %54 = icmp sgt i32 %53, 1
  br i1 %54, label %55, label %57, !prof !11

55:                                               ; preds = %52
  %56 = add nsw i32 %53, -1
  store i32 %56, ptr %2, align 4, !tbaa !8
  br label %lean_dec.exit18

57:                                               ; preds = %52
  %.not.i29 = icmp eq i32 %53, 0
  br i1 %.not.i29, label %lean_dec.exit18, label %58

58:                                               ; preds = %57
  tail call void @lean_dec_ref_cold(ptr noundef nonnull %2) #5
  br label %lean_dec.exit18

lean_dec.exit18:                                  ; preds = %58, %57, %55, %lean_dec.exit19
  %59 = ptrtoint ptr %0 to i64
  %60 = and i64 %59, 1
  %.not38 = icmp eq i64 %60, 0
  br i1 %.not38, label %61, label %lean_dec.exit

61:                                               ; preds = %lean_dec.exit18
  %62 = load i32, ptr %0, align 4, !tbaa !8
  %63 = icmp sgt i32 %62, 1
  br i1 %63, label %64, label %66, !prof !11

64:                                               ; preds = %61
  %65 = add nsw i32 %62, -1
  store i32 %65, ptr %0, align 4, !tbaa !8
  br label %lean_dec.exit

66:                                               ; preds = %61
  %.not.i31 = icmp eq i32 %62, 0
  br i1 %.not.i31, label %lean_dec.exit, label %67

67:                                               ; preds = %66
  tail call void @lean_dec_ref_cold(ptr noundef nonnull %0) #5
  br label %lean_dec.exit

lean_dec.exit:                                    ; preds = %67, %66, %64, %lean_dec.exit18
  ret ptr %31
}